target datalayout = "e-m:e-p270:32:32-p271:32:32-p272:64:64-i64:64-i128:128-f80:128-n8:16:32:64-S128"
target triple = "x86_64-unknown-linux-gnu"

%"class.node::worker::Message" = type { %"class.node::MemoryRetainer", %"struct.node::MallocedBuffer", %"class.std::vector", %"class.std::vector", %"class.std::vector.0", %"class.std::vector.5", %"class.std::optional" }
%"class.node::MemoryRetainer" = type { ptr }
%"struct.node::MallocedBuffer" = type { ptr, i64 }
%"class.std::vector" = type { %"struct.std::_Vector_base" }
%"struct.std::_Vector_base" = type { %"struct.std::_Vector_base<std::shared_ptr<v8::BackingStore>, std::allocator<std::shared_ptr<v8::BackingStore>>>::_Vector_impl" }
%"struct.std::_Vector_base<std::shared_ptr<v8::BackingStore>, std::allocator<std::shared_ptr<v8::BackingStore>>>::_Vector_impl" = type { %"struct.std::_Vector_base<std::shared_ptr<v8::BackingStore>, std::allocator<std::shared_ptr<v8::BackingStore>>>::_Vector_impl_data" }
%"struct.std::_Vector_base<std::shared_ptr<v8::BackingStore>, std::allocator<std::shared_ptr<v8::BackingStore>>>::_Vector_impl_data" = type { ptr, ptr, ptr }
%"class.std::vector.0" = type { %"struct.std::_Vector_base.1" }
%"struct.std::_Vector_base.1" = type { %"struct.std::_Vector_base<std::unique_ptr<node::worker::TransferData>, std::allocator<std::unique_ptr<node::worker::TransferData>>>::_Vector_impl" }
%"struct.std::_Vector_base<std::unique_ptr<node::worker::TransferData>, std::allocator<std::unique_ptr<node::worker::TransferData>>>::_Vector_impl" = type { %"struct.std::_Vector_base<std::unique_ptr<node::worker::TransferData>, std::allocator<std::unique_ptr<node::worker::TransferData>>>::_Vector_impl_data" }
%"struct.std::_Vector_base<std::unique_ptr<node::worker::TransferData>, std::allocator<std::unique_ptr<node::worker::TransferData>>>::_Vector_impl_data" = type { ptr, ptr, ptr }
%"class.std::vector.5" = type { %"struct.std::_Vector_base.6" }
%"struct.std::_Vector_base.6" = type { %"struct.std::_Vector_base<v8::CompiledWasmModule, std::allocator<v8::CompiledWasmModule>>::_Vector_impl" }
%"struct.std::_Vector_base<v8::CompiledWasmModule, std::allocator<v8::CompiledWasmModule>>::_Vector_impl" = type { %"struct.std::_Vector_base<v8::CompiledWasmModule, std::allocator<v8::CompiledWasmModule>>::_Vector_impl_data" }
%"struct.std::_Vector_base<v8::CompiledWasmModule, std::allocator<v8::CompiledWasmModule>>::_Vector_impl_data" = type { ptr, ptr, ptr }
%"class.std::optional" = type { %"struct.std::_Optional_base" }
%"struct.std::_Optional_base" = type { %"struct.std::_Optional_payload" }
%"struct.std::_Optional_payload" = type { %"struct.std::_Optional_payload.base", [7 x i8] }
%"struct.std::_Optional_payload.base" = type { %"struct.std::_Optional_payload_base.base" }
%"struct.std::_Optional_payload_base.base" = type <{ %"union.std::_Optional_payload_base<v8::SharedValueConveyor>::_Storage", i8 }>
%"union.std::_Optional_payload_base<v8::SharedValueConveyor>::_Storage" = type { %"class.v8::SharedValueConveyor" }
%"class.v8::SharedValueConveyor" = type { %"class.std::unique_ptr" }
%"class.std::unique_ptr" = type { %"struct.std::__uniq_ptr_data" }
%"struct.std::__uniq_ptr_data" = type { %"class.std::__uniq_ptr_impl" }
%"class.std::__uniq_ptr_impl" = type { %"class.std::tuple" }
%"class.std::tuple" = type { %"struct.std::_Tuple_impl" }
%"struct.std::_Tuple_impl" = type { %"struct.std::_Head_base.12" }
%"struct.std::_Head_base.12" = type { ptr }

@.str.12 = private unnamed_addr constant [15 x i8] c"array_buffers_\00", align 1
@.str.13 = private unnamed_addr constant [21 x i8] c"shared_array_buffers\00", align 1
@.str.14 = private unnamed_addr constant [14 x i8] c"transferables\00", align 1

; Function Attrs: mustprogress nounwind uwtable
define dso_local void @_ZNK4node6worker7Message10MemoryInfoEPNS_13MemoryTrackerE(ptr noundef nonnull align 8 dereferenceable(136) %this, ptr noundef %tracker) unnamed_addr #4 align 2 {
entry:
  %this.addr = alloca ptr, align 8
  %tracker.addr = alloca ptr, align 8
  store ptr %this, ptr %this.addr, align 8
  store ptr %tracker, ptr %tracker.addr, align 8
  %this1 = load ptr, ptr %this.addr, align 8
  %0 = load ptr, ptr %tracker.addr, align 8
  %array_buffers_ = getelementptr inbounds %"class.node::worker::Message", ptr %this1, i32 0, i32 2
  call void @_ZN4node13MemoryTracker10TrackFieldISt6vectorISt10shared_ptrIN2v812BackingStoreEESaIS6_EEN9__gnu_cxx17__normal_iteratorIPKS6_S8_EEEEvPKcRKT_SF_SF_b(ptr noundef nonnull align 8 dereferenceable(152) %0, ptr noundef @.str.12, ptr noundef nonnull align 8 dereferenceable(24) %array_buffers_, ptr noundef null, ptr noundef null, i1 noundef zeroext true)
  %1 = load ptr, ptr %tracker.addr, align 8
  %shared_array_buffers_ = getelementptr inbounds %"class.node::worker::Message", ptr %this1, i32 0, i32 3
  call void @_ZN4node13MemoryTracker10TrackFieldISt6vectorISt10shared_ptrIN2v812BackingStoreEESaIS6_EEN9__gnu_cxx17__normal_iteratorIPKS6_S8_EEEEvPKcRKT_SF_SF_b(ptr noundef nonnull align 8 dereferenceable(152) %1, ptr noundef @.str.13, ptr noundef nonnull align 8 dereferenceable(24) %shared_array_buffers_, ptr noundef null, ptr noundef null, i1 noundef zeroext true)
  %2 = load ptr, ptr %tracker.addr, align 8
  %transferables_ = getelementptr inbounds %"class.node::worker::Message", ptr %this1, i32 0, i32 4
  call void @_ZN4node13MemoryTracker10TrackFieldISt6vectorISt10unique_ptrINS_6worker12TransferDataESt14default_deleteIS5_EESaIS8_EEN9__gnu_cxx17__normal_iteratorIPKS8_SA_EEEEvPKcRKT_SH_SH_b(ptr noundef nonnull align 8 dereferenceable(152) %2, ptr noundef @.str.14, ptr noundef nonnull align 8 dereferenceable(24) %transferables_, ptr noundef null, ptr noundef null, i1 noundef zeroext true)
  ret void
}