; Function Attrs: mustprogress nounwind uwtable
define dso_local void @_ZNK4node6worker7Message10MemoryInfoEPNS_13MemoryTrackerE(ptr noundef nonnull align 8 dereferenceable(136) %this, ptr noundef nonnull %tracker) unnamed_addr #6 align 2 {
entry:
  %array_buffers_ = getelementptr inbounds i8, ptr %this, i64 24
  tail call void @_ZN4node13MemoryTracker10TrackFieldISt6vectorISt10shared_ptrIN2v812BackingStoreEESaIS6_EEN9__gnu_cxx17__normal_iteratorIPKS6_S8_EEEEvPKcRKT_SF_SF_b(ptr noundef nonnull align 8 dereferenceable(152) %tracker, ptr noundef nonnull @.str.12, ptr noundef nonnull align 8 dereferenceable(24) %array_buffers_, ptr noundef null, ptr noundef null, i1 noundef zeroext true)
  %shared_array_buffers_ = getelementptr inbounds i8, ptr %this, i64 48
  tail call void @_ZN4node13MemoryTracker10TrackFieldISt6vectorISt10shared_ptrIN2v812BackingStoreEESaIS6_EEN9__gnu_cxx17__normal_iteratorIPKS6_S8_EEEEvPKcRKT_SF_SF_b(ptr noundef nonnull align 8 dereferenceable(152) %tracker, ptr noundef nonnull @.str.13, ptr noundef nonnull align 8 dereferenceable(24) %shared_array_buffers_, ptr noundef null, ptr noundef null, i1 noundef zeroext true)
  %transferables_ = getelementptr inbounds i8, ptr %this, i64 72
  tail call void @_ZN4node13MemoryTracker10TrackFieldISt6vectorISt10unique_ptrINS_6worker12TransferDataESt14default_deleteIS5_EESaIS8_EEN9__gnu_cxx17__normal_iteratorIPKS8_SA_EEEEvPKcRKT_SH_SH_b(ptr noundef nonnull align 8 dereferenceable(152) %tracker, ptr noundef nonnull @.str.14, ptr noundef nonnull align 8 dereferenceable(24) %transferables_, ptr noundef null, ptr noundef null, i1 noundef zeroext true)
  ret void
}